; Function Attrs: nounwind sspstrong uwtable
define internal range(i64 1, 0) i64 @bug_str_s_cstr_term(i64 %0, i64 noundef %1) #0 {
  %3 = alloca i64, align 8
  %4 = icmp eq i64 %1, 0
  %5 = and i64 %1, 7
  %6 = icmp ne i64 %5, 0
  %7 = or i1 %4, %6
  br i1 %7, label %rbimpl_RB_TYPE_P_fastpath.exit.thread.i, label %rbimpl_RB_TYPE_P_fastpath.exit.i, !prof !27

rbimpl_RB_TYPE_P_fastpath.exit.i:                 ; preds = %2
  %8 = inttoptr i64 %1 to ptr
  %9 = load i64, ptr %8, align 8, !tbaa !18
  %10 = and i64 %9, 31
  %11 = icmp eq i64 %10, 5
  br i1 %11, label %Check_Type.exit, label %rbimpl_RB_TYPE_P_fastpath.exit.thread.i, !prof !28

rbimpl_RB_TYPE_P_fastpath.exit.thread.i:          ; preds = %rbimpl_RB_TYPE_P_fastpath.exit.i, %2
  tail call void @rb_unexpected_type(i64 noundef %1, i32 noundef 5) #11
  unreachable

Check_Type.exit:                                  ; preds = %rbimpl_RB_TYPE_P_fastpath.exit.i
  call void @llvm.lifetime.start.p0(i64 8, ptr nonnull %3)
  store i64 %1, ptr %3, align 8, !tbaa !6
  %12 = getelementptr inbounds nuw i8, ptr %8, i64 16
  %13 = load i64, ptr %12, align 8, !tbaa !10
  %14 = call ptr @rb_string_value_cstr(ptr noundef nonnull %3) #9
  call void @rb_gc() #9
  %15 = load i64, ptr %3, align 8, !tbaa !6
  %16 = call ptr @rb_enc_get(i64 noundef %15) #9
  %17 = getelementptr inbounds i8, ptr %14, i64 %13
  %18 = getelementptr i8, ptr %16, i64 20
  %.val.i = load i32, ptr %18, align 4, !tbaa !13
  %19 = sext i32 %.val.i to i64
  %20 = getelementptr i8, ptr %17, i64 %19
  %21 = call i32 @rb_enc_codepoint_len(ptr noundef %17, ptr noundef %20, ptr noundef null, ptr noundef %16) #9
  %22 = sext i32 %21 to i64
  %23 = shl nsw i64 %22, 1
  %24 = or disjoint i64 %23, 1
  call void @llvm.lifetime.end.p0(i64 8, ptr nonnull %3)
  ret i64 %24
}